target datalayout = "e-m:e-p270:32:32-p271:32:32-p272:64:64-i64:64-i128:128-f80:128-n8:16:32:64-S128"
target triple = "x86_64-pc-linux-gnu"

%struct.Vec_Ptr_t_ = type { i32, i32, ptr }
%struct.Dec_Graph_t_ = type { i32, i32, i32, i32, ptr, %struct.Dec_Edge_t_ }
%struct.Dec_Edge_t_ = type { i32 }
%struct.Dec_Node_t_ = type { %struct.Dec_Edge_t_, %struct.Dec_Edge_t_, %union.anon, i32 }
%union.anon = type { ptr }

@.str = private unnamed_addr constant [2 x i8] c"F\00", align 1
@.str.1 = private unnamed_addr constant [12 x i8] c"Constant %d\00", align 1
@.str.2 = private unnamed_addr constant [2 x i8] c"\0A\00", align 1
@Dec_GraphPrintGetLeafName.Buffer = internal global [100 x i8] zeroinitializer, align 16
@.str.8 = private unnamed_addr constant [5 x i8] c"%s%s\00", align 1
@.str.9 = private unnamed_addr constant [2 x i8] c"!\00", align 1
@.str.10 = private unnamed_addr constant [1 x i8] zeroinitializer, align 1
@.str.11 = private unnamed_addr constant [3 x i8] c"%s\00", align 1
@.str.12 = private unnamed_addr constant [7 x i8] c"%6s = \00", align 1

; Function Attrs: nounwind uwtable
define internal ptr @Dec_GraphNode(ptr noundef %0, i32 noundef %1) #0 {
  %3 = alloca ptr, align 8
  %4 = alloca i32, align 4
  store ptr %0, ptr %3, align 8
  store i32 %1, ptr %4, align 4
  %5 = load ptr, ptr %3, align 8
  %6 = getelementptr inbounds %struct.Dec_Graph_t_, ptr %5, i32 0, i32 4
  %7 = load ptr, ptr %6, align 8
  %8 = load i32, ptr %4, align 4
  %9 = sext i32 %8 to i64
  %10 = getelementptr inbounds %struct.Dec_Node_t_, ptr %7, i64 %9
  ret ptr %10
}

; Function Attrs: nounwind uwtable
define internal i32 @Dec_GraphNodeInt(ptr noundef %0, ptr noundef %1) #0 {
  %3 = alloca ptr, align 8
  %4 = alloca ptr, align 8
  store ptr %0, ptr %3, align 8
  store ptr %1, ptr %4, align 8
  %5 = load ptr, ptr %4, align 8
  %6 = load ptr, ptr %3, align 8
  %7 = getelementptr inbounds %struct.Dec_Graph_t_, ptr %6, i32 0, i32 4
  %8 = load ptr, ptr %7, align 8
  %9 = ptrtoint ptr %5 to i64
  %10 = ptrtoint ptr %8 to i64
  %11 = sub i64 %9, %10
  %12 = sdiv exact i64 %11, 24
  %13 = trunc i64 %12 to i32
  ret i32 %13
}

; Function Attrs: nounwind uwtable
define internal ptr @Dec_GraphVar(ptr noundef %0) #0 {
  %2 = alloca ptr, align 8
  store ptr %0, ptr %2, align 8
  %3 = load ptr, ptr %2, align 8
  %4 = load ptr, ptr %2, align 8
  %5 = getelementptr inbounds %struct.Dec_Graph_t_, ptr %4, i32 0, i32 5
  %6 = load i32, ptr %5, align 8
  %7 = lshr i32 %6, 1
  %8 = and i32 %7, 1073741823
  %9 = call ptr @Dec_GraphNode(ptr noundef %3, i32 noundef %8)
  ret ptr %9
}

; Function Attrs: nounwind uwtable
define internal ptr @Dec_GraphNodeLast(ptr noundef %0) #0 {
  %2 = alloca ptr, align 8
  store ptr %0, ptr %2, align 8
  %3 = load ptr, ptr %2, align 8
  %4 = getelementptr inbounds %struct.Dec_Graph_t_, ptr %3, i32 0, i32 4
  %5 = load ptr, ptr %4, align 8
  %6 = load ptr, ptr %2, align 8
  %7 = getelementptr inbounds %struct.Dec_Graph_t_, ptr %6, i32 0, i32 2
  %8 = load i32, ptr %7, align 8
  %9 = sext i32 %8 to i64
  %10 = getelementptr inbounds %struct.Dec_Node_t_, ptr %5, i64 %9
  %11 = getelementptr inbounds %struct.Dec_Node_t_, ptr %10, i64 -1
  ret ptr %11
}

; Function Attrs: nounwind uwtable
define internal i32 @Dec_GraphPrintGetLeafName(ptr noundef %0, i32 noundef %1, i32 noundef %2, ptr noundef %3) #0 {
  %5 = alloca ptr, align 8
  %6 = alloca i32, align 4
  %7 = alloca i32, align 4
  %8 = alloca ptr, align 8
  store ptr %0, ptr %5, align 8
  store i32 %1, ptr %6, align 4
  store i32 %2, ptr %7, align 4
  store ptr %3, ptr %8, align 8
  %9 = load i32, ptr %7, align 4
  %10 = icmp ne i32 %9, 0
  %11 = select i1 %10, ptr @.str.9, ptr @.str.10
  %12 = load ptr, ptr %8, align 8
  %13 = load i32, ptr %6, align 4
  %14 = sext i32 %13 to i64
  %15 = getelementptr inbounds ptr, ptr %12, i64 %14
  %16 = load ptr, ptr %15, align 8
  %17 = call i32 (ptr, ptr, ...) @sprintf(ptr noundef @Dec_GraphPrintGetLeafName.Buffer, ptr noundef @.str.8, ptr noundef %11, ptr noundef %16) #5
  %18 = load ptr, ptr %5, align 8
  %19 = call i32 (ptr, ptr, ...) @fprintf(ptr noundef %18, ptr noundef @.str.11, ptr noundef @Dec_GraphPrintGetLeafName.Buffer) #5
  %20 = call i64 @strlen(ptr noundef @Dec_GraphPrintGetLeafName.Buffer) #4
  %21 = trunc i64 %20 to i32
  ret i32 %21
}

; Function Attrs: nounwind uwtable
define internal i32 @Dec_GraphVarInt(ptr noundef %0) #0 {
  %2 = alloca ptr, align 8
  store ptr %0, ptr %2, align 8
  %3 = load ptr, ptr %2, align 8
  %4 = load ptr, ptr %2, align 8
  %5 = call ptr @Dec_GraphVar(ptr noundef %4)
  %6 = call i32 @Dec_GraphNodeInt(ptr noundef %3, ptr noundef %5)
  ret i32 %6
}

; Function Attrs: nounwind uwtable
define internal i32 @Dec_GraphIsVar(ptr noundef %0) #0 {
  %2 = alloca ptr, align 8
  store ptr %0, ptr %2, align 8
  %3 = load ptr, ptr %2, align 8
  %4 = getelementptr inbounds %struct.Dec_Graph_t_, ptr %3, i32 0, i32 5
  %5 = load i32, ptr %4, align 8
  %6 = lshr i32 %5, 1
  %7 = and i32 %6, 1073741823
  %8 = load ptr, ptr %2, align 8
  %9 = getelementptr inbounds %struct.Dec_Graph_t_, ptr %8, i32 0, i32 1
  %10 = load i32, ptr %9, align 4
  %11 = icmp ult i32 %7, %10
  %12 = zext i1 %11 to i32
  ret i32 %12
}

; Function Attrs: nounwind uwtable
define internal i32 @Dec_GraphIsComplement(ptr noundef %0) #0 {
  %2 = alloca ptr, align 8
  store ptr %0, ptr %2, align 8
  %3 = load ptr, ptr %2, align 8
  %4 = getelementptr inbounds %struct.Dec_Graph_t_, ptr %3, i32 0, i32 5
  %5 = load i32, ptr %4, align 8
  %6 = and i32 %5, 1
  ret i32 %6
}

; Function Attrs: nounwind uwtable
define internal i32 @Dec_GraphPrintOutputName(ptr noundef %0, ptr noundef %1) #0 {
  %3 = alloca i32, align 4
  %4 = alloca ptr, align 8
  %5 = alloca ptr, align 8
  store ptr %0, ptr %4, align 8
  store ptr %1, ptr %5, align 8
  %6 = load ptr, ptr %5, align 8
  %7 = icmp eq ptr %6, null
  br i1 %7, label %8, label %9

8:                                                ; preds = %2
  store i32 0, ptr %3, align 4
  br label %13

9:                                                ; preds = %2
  %10 = load ptr, ptr %4, align 8
  %11 = load ptr, ptr %5, align 8
  %12 = call i32 (ptr, ptr, ...) @fprintf(ptr noundef %10, ptr noundef @.str.12, ptr noundef %11) #5
  store i32 10, ptr %3, align 4
  br label %13

13:                                               ; preds = %9, %8
  %14 = load i32, ptr %3, align 4
  ret i32 %14
}

; Function Attrs: nounwind uwtable
define internal i32 @Dec_GraphIsConst(ptr noundef %0) #0 {
  %2 = alloca ptr, align 8
  store ptr %0, ptr %2, align 8
  %3 = load ptr, ptr %2, align 8
  %4 = getelementptr inbounds %struct.Dec_Graph_t_, ptr %3, i32 0, i32 0
  %5 = load i32, ptr %4, align 8
  ret i32 %5
}

; Function Attrs: nounwind uwtable
define internal i32 @Dec_GraphLeaveNum(ptr noundef %0) #0 {
  %2 = alloca ptr, align 8
  store ptr %0, ptr %2, align 8
  %3 = load ptr, ptr %2, align 8
  %4 = getelementptr inbounds %struct.Dec_Graph_t_, ptr %3, i32 0, i32 1
  %5 = load i32, ptr %4, align 4
  ret i32 %5
}

; Function Attrs: nounwind uwtable
define void @Dec_GraphPrint(ptr noundef %0, ptr noundef %1, ptr noundef %2, ptr noundef %3) #0 {
  %5 = alloca ptr, align 8
  %6 = alloca ptr, align 8
  %7 = alloca ptr, align 8
  %8 = alloca ptr, align 8
  %9 = alloca ptr, align 8
  %10 = alloca i32, align 4
  %11 = alloca i32, align 4
  %12 = alloca i32, align 4
  %13 = alloca i32, align 4
  store ptr %0, ptr %5, align 8
  store ptr %1, ptr %6, align 8
  store ptr %2, ptr %7, align 8
  store ptr %3, ptr %8, align 8
  store ptr null, ptr %9, align 8
  %14 = load ptr, ptr %7, align 8
  %15 = icmp eq ptr %14, null
  br i1 %15, label %16, label %23

16:                                               ; preds = %4
  %17 = load ptr, ptr %6, align 8
  %18 = call i32 @Dec_GraphLeaveNum(ptr noundef %17)
  %19 = call ptr @Abc_NodeGetFakeNames(i32 noundef %18)
  store ptr %19, ptr %9, align 8
  %20 = load ptr, ptr %9, align 8
  %21 = getelementptr inbounds %struct.Vec_Ptr_t_, ptr %20, i32 0, i32 2
  %22 = load ptr, ptr %21, align 8
  store ptr %22, ptr %7, align 8
  br label %23

23:                                               ; preds = %16, %4
  %24 = load ptr, ptr %8, align 8
  %25 = icmp eq ptr %24, null
  br i1 %25, label %26, label %27

26:                                               ; preds = %23
  store ptr @.str, ptr %8, align 8
  br label %27

27:                                               ; preds = %26, %23
  store i32 0, ptr %10, align 4
  store i32 0, ptr %13, align 4
  br label %28

28:                                               ; preds = %47, %27
  %29 = load i32, ptr %13, align 4
  %30 = load ptr, ptr %6, align 8
  %31 = call i32 @Dec_GraphLeaveNum(ptr noundef %30)
  %32 = icmp slt i32 %29, %31
  br i1 %32, label %33, label %50

33:                                               ; preds = %28
  %34 = load ptr, ptr %7, align 8
  %35 = load i32, ptr %13, align 4
  %36 = sext i32 %35 to i64
  %37 = getelementptr inbounds ptr, ptr %34, i64 %36
  %38 = load ptr, ptr %37, align 8
  %39 = call i64 @strlen(ptr noundef %38) #4
  %40 = trunc i64 %39 to i32
  store i32 %40, ptr %11, align 4
  %41 = load i32, ptr %10, align 4
  %42 = load i32, ptr %11, align 4
  %43 = icmp slt i32 %41, %42
  br i1 %43, label %44, label %46

44:                                               ; preds = %33
  %45 = load i32, ptr %11, align 4
  store i32 %45, ptr %10, align 4
  br label %46

46:                                               ; preds = %44, %33
  br label %47

47:                                               ; preds = %46
  %48 = load i32, ptr %13, align 4
  %49 = add nsw i32 %48, 1
  store i32 %49, ptr %13, align 4
  br label %28, !llvm.loop !4

50:                                               ; preds = %28
  %51 = load i32, ptr %10, align 4
  %52 = icmp sgt i32 %51, 50
  br i1 %52, label %53, label %54

53:                                               ; preds = %50
  store i32 20, ptr %10, align 4
  br label %54

54:                                               ; preds = %53, %50
  %55 = load ptr, ptr %6, align 8
  %56 = call i32 @Dec_GraphIsConst(ptr noundef %55)
  %57 = icmp ne i32 %56, 0
  br i1 %57, label %58, label %69

58:                                               ; preds = %54
  %59 = load ptr, ptr %5, align 8
  %60 = load ptr, ptr %8, align 8
  %61 = call i32 @Dec_GraphPrintOutputName(ptr noundef %59, ptr noundef %60)
  store i32 %61, ptr %12, align 4
  %62 = load ptr, ptr %5, align 8
  %63 = load ptr, ptr %6, align 8
  %64 = call i32 @Dec_GraphIsComplement(ptr noundef %63)
  %65 = icmp ne i32 %64, 0
  %66 = xor i1 %65, true
  %67 = zext i1 %66 to i32
  %68 = call i32 (ptr, ptr, ...) @fprintf(ptr noundef %62, ptr noundef @.str.1, i32 noundef %67) #5
  br label %97

69:                                               ; preds = %54
  %70 = load ptr, ptr %6, align 8
  %71 = call i32 @Dec_GraphIsVar(ptr noundef %70)
  %72 = icmp ne i32 %71, 0
  br i1 %72, label %73, label %84

73:                                               ; preds = %69
  %74 = load ptr, ptr %5, align 8
  %75 = load ptr, ptr %8, align 8
  %76 = call i32 @Dec_GraphPrintOutputName(ptr noundef %74, ptr noundef %75)
  store i32 %76, ptr %12, align 4
  %77 = load ptr, ptr %5, align 8
  %78 = load ptr, ptr %6, align 8
  %79 = call i32 @Dec_GraphVarInt(ptr noundef %78)
  %80 = load ptr, ptr %6, align 8
  %81 = call i32 @Dec_GraphIsComplement(ptr noundef %80)
  %82 = load ptr, ptr %7, align 8
  %83 = call i32 @Dec_GraphPrintGetLeafName(ptr noundef %77, i32 noundef %79, i32 noundef %81, ptr noundef %82)
  br label %96

84:                                               ; preds = %69
  %85 = load ptr, ptr %5, align 8
  %86 = load ptr, ptr %8, align 8
  %87 = call i32 @Dec_GraphPrintOutputName(ptr noundef %85, ptr noundef %86)
  store i32 %87, ptr %12, align 4
  %88 = load ptr, ptr %5, align 8
  %89 = load ptr, ptr %6, align 8
  %90 = load ptr, ptr %6, align 8
  %91 = call ptr @Dec_GraphNodeLast(ptr noundef %90)
  %92 = load ptr, ptr %6, align 8
  %93 = call i32 @Dec_GraphIsComplement(ptr noundef %92)
  %94 = load ptr, ptr %7, align 8
  %95 = load i32, ptr %10, align 4
  call void @Dec_GraphPrint_rec(ptr noundef %88, ptr noundef %89, ptr noundef %91, i32 noundef %93, ptr noundef %94, ptr noundef %12, i32 noundef %95)
  br label %96

96:                                               ; preds = %84, %73
  br label %97

97:                                               ; preds = %96, %58
  %98 = load ptr, ptr %5, align 8
  %99 = call i32 (ptr, ptr, ...) @fprintf(ptr noundef %98, ptr noundef @.str.2) #5
  %100 = load ptr, ptr %9, align 8
  %101 = icmp ne ptr %100, null
  br i1 %101, label %102, label %104

102:                                              ; preds = %97
  %103 = load ptr, ptr %9, align 8
  call void @Abc_NodeFreeNames(ptr noundef %103)
  br label %104

104:                                              ; preds = %102, %97
  ret void
}