; Function Attrs: nounwind uwtable
define void @Dec_GraphPrint(ptr noundef %0, ptr noundef %1, ptr noundef %2, ptr noundef %3) local_unnamed_addr #0 {
  %5 = alloca i32, align 4
  %6 = icmp eq ptr %2, null
  br i1 %6, label %7, label %12

7:                                                ; preds = %4
  %8 = getelementptr i8, ptr %1, i64 4
  %.val = load i32, ptr %8, align 4
  %9 = tail call ptr @Abc_NodeGetFakeNames(i32 noundef %.val) #7
  %10 = getelementptr inbounds nuw i8, ptr %9, i64 8
  %11 = load ptr, ptr %10, align 8
  br label %12

12:                                               ; preds = %7, %4
  %.038 = phi ptr [ %9, %7 ], [ null, %4 ]
  %.036 = phi ptr [ %11, %7 ], [ %2, %4 ]
  %13 = icmp eq ptr %3, null
  %spec.store.select = select i1 %13, ptr @.str, ptr %3
  %14 = getelementptr i8, ptr %1, i64 4
  %.val44 = load i32, ptr %14, align 4
  %15 = icmp sgt i32 %.val44, 0
  br i1 %15, label %.lr.ph.preheader, label %._crit_edge.thread

.lr.ph.preheader:                                 ; preds = %12
  %wide.trip.count = zext nneg i32 %.val44 to i64
  br label %.lr.ph

.lr.ph:                                           ; preds = %.lr.ph.preheader, %.lr.ph
  %indvars.iv = phi i64 [ 0, %.lr.ph.preheader ], [ %indvars.iv.next, %.lr.ph ]
  %.03756 = phi i32 [ 0, %.lr.ph.preheader ], [ %spec.select, %.lr.ph ]
  %16 = getelementptr inbounds nuw ptr, ptr %.036, i64 %indvars.iv
  %17 = load ptr, ptr %16, align 8
  %18 = tail call i64 @strlen(ptr noundef nonnull dereferenceable(1) %17) #8
  %.fr63 = freeze i64 %18
  %19 = trunc i64 %.fr63 to i32
  %spec.select = tail call i32 @llvm.smax.i32(i32 %.03756, i32 %19)
  %indvars.iv.next = add nuw nsw i64 %indvars.iv, 1
  %exitcond.not = icmp eq i64 %indvars.iv.next, %wide.trip.count
  br i1 %exitcond.not, label %._crit_edge.thread, label %.lr.ph, !llvm.loop !4

._crit_edge.thread:                               ; preds = %.lr.ph, %12
  %.val45 = load i32, ptr %1, align 8
  %.not = icmp eq i32 %.val45, 0
  br i1 %.not, label %26, label %20

20:                                               ; preds = %._crit_edge.thread
  %21 = tail call i32 (ptr, ptr, ...) @fprintf(ptr noundef %0, ptr noundef nonnull @.str.12, ptr noundef nonnull %spec.store.select) #7
  store i32 10, ptr %5, align 4
  %22 = getelementptr i8, ptr %1, i64 24
  %.val46 = load i32, ptr %22, align 8
  %23 = and i32 %.val46, 1
  %24 = xor i32 %23, 1
  %25 = tail call i32 (ptr, ptr, ...) @fprintf(ptr noundef %0, ptr noundef nonnull @.str.1, i32 noundef %24) #7
  br label %47

26:                                               ; preds = %._crit_edge.thread
  %27 = getelementptr i8, ptr %1, i64 24
  %.val50 = load i32, ptr %27, align 8
  %28 = lshr i32 %.val50, 1
  %29 = and i32 %28, 1073741823
  %.not55 = icmp ult i32 %29, %.val44
  %30 = tail call i32 (ptr, ptr, ...) @fprintf(ptr noundef %0, ptr noundef nonnull @.str.12, ptr noundef nonnull %spec.store.select) #7
  store i32 10, ptr %5, align 4
  br i1 %.not55, label %31, label %40

31:                                               ; preds = %26
  %.val52 = load i32, ptr %27, align 8
  %32 = lshr i32 %.val52, 1
  %33 = and i32 %32, 1073741823
  %34 = and i32 %.val52, 1
  %.not.i = icmp eq i32 %34, 0
  %35 = select i1 %.not.i, ptr @.str.10, ptr @.str.9
  %36 = zext nneg i32 %33 to i64
  %37 = getelementptr inbounds nuw ptr, ptr %.036, i64 %36
  %38 = load ptr, ptr %37, align 8
  %39 = tail call i32 (ptr, ptr, ...) @sprintf(ptr noundef nonnull dereferenceable(1) @Dec_GraphPrintGetLeafName.Buffer, ptr noundef nonnull dereferenceable(1) @.str.8, ptr noundef nonnull %35, ptr noundef %38) #7
  %fputs.i = tail call i32 @fputs(ptr nonnull @Dec_GraphPrintGetLeafName.Buffer, ptr %0)
  br label %47

40:                                               ; preds = %26
  %41 = getelementptr i8, ptr %1, i64 8
  %.val53 = load i32, ptr %41, align 8
  %42 = getelementptr i8, ptr %1, i64 16
  %.val54 = load ptr, ptr %42, align 8
  %43 = sext i32 %.val53 to i64
  %44 = getelementptr inbounds %struct.Dec_Node_t_, ptr %.val54, i64 %43
  %45 = getelementptr inbounds i8, ptr %44, i64 -24
  %.val48 = load i32, ptr %27, align 8
  %46 = and i32 %.val48, 1
  call fastcc void @Dec_GraphPrint_rec(ptr noundef %0, ptr noundef nonnull %1, ptr noundef nonnull %45, i32 noundef %46, ptr noundef %.036, ptr noundef nonnull %5)
  br label %47

47:                                               ; preds = %31, %40, %20
  %fputc = call i32 @fputc(i32 10, ptr %0)
  %.not43 = icmp eq ptr %.038, null
  br i1 %.not43, label %49, label %48

48:                                               ; preds = %47
  call void @Abc_NodeFreeNames(ptr noundef nonnull %.038) #7
  br label %49

49:                                               ; preds = %48, %47
  ret void
}